target datalayout = "e-m:e-p270:32:32-p271:32:32-p272:64:64-i64:64-i128:128-f80:128-n8:16:32:64-S128"
target triple = "x86_64-pc-linux-gnu"

%"class.llvm::SmallVectorBase" = type { ptr, i32, i32 }
%"struct.llvm::ISD::ArgFlagsTy" = type { i64, i32, i32 }
%"class.llvm::MVT" = type { i16 }
%"class.llvm::SmallVectorBase.118" = type { ptr, i64, i64 }

; Function Attrs: mustprogress nounwind uwtable
define linkonce_odr hidden noundef ptr @_ZN4llvm25SmallVectorTemplateCommonINS_3ISD10ArgFlagsTyEvE5beginEv(ptr noundef nonnull align 8 dereferenceable(16) %0) #0 comdat align 2 {
  %2 = alloca ptr, align 8
  store ptr %0, ptr %2, align 8
  %3 = load ptr, ptr %2, align 8
  %4 = getelementptr inbounds nuw %"class.llvm::SmallVectorBase", ptr %3, i32 0, i32 0
  %5 = load ptr, ptr %4, align 8
  ret ptr %5
}

; Function Attrs: mustprogress nounwind uwtable
define linkonce_odr hidden noundef ptr @_ZN4llvm25SmallVectorTemplateCommonINS_3MVTEvE5beginEv(ptr noundef nonnull align 8 dereferenceable(24) %0) #0 comdat align 2 {
  %2 = alloca ptr, align 8
  store ptr %0, ptr %2, align 8
  %3 = load ptr, ptr %2, align 8
  %4 = getelementptr inbounds nuw %"class.llvm::SmallVectorBase.118", ptr %3, i32 0, i32 0
  %5 = load ptr, ptr %4, align 8
  ret ptr %5
}

; Function Attrs: mustprogress nounwind uwtable
define linkonce_odr hidden noundef nonnull align 4 dereferenceable(16) ptr @_ZN4llvm25SmallVectorTemplateCommonINS_3ISD10ArgFlagsTyEvEixEm(ptr noundef nonnull align 8 dereferenceable(16) %0, i64 noundef %1) #0 comdat align 2 {
  %3 = alloca ptr, align 8
  %4 = alloca i64, align 8
  store ptr %0, ptr %3, align 8
  store i64 %1, ptr %4, align 8
  %5 = load ptr, ptr %3, align 8
  %6 = call noundef ptr @_ZN4llvm25SmallVectorTemplateCommonINS_3ISD10ArgFlagsTyEvE5beginEv(ptr noundef nonnull align 8 dereferenceable(16) %5)
  %7 = load i64, ptr %4, align 8
  %8 = getelementptr inbounds %"struct.llvm::ISD::ArgFlagsTy", ptr %6, i64 %7
  ret ptr %8
}

; Function Attrs: mustprogress nounwind uwtable
define linkonce_odr hidden noundef nonnull align 2 dereferenceable(2) ptr @_ZN4llvm25SmallVectorTemplateCommonINS_3MVTEvEixEm(ptr noundef nonnull align 8 dereferenceable(24) %0, i64 noundef %1) #0 comdat align 2 {
  %3 = alloca ptr, align 8
  %4 = alloca i64, align 8
  store ptr %0, ptr %3, align 8
  store i64 %1, ptr %4, align 8
  %5 = load ptr, ptr %3, align 8
  %6 = call noundef ptr @_ZN4llvm25SmallVectorTemplateCommonINS_3MVTEvE5beginEv(ptr noundef nonnull align 8 dereferenceable(24) %5)
  %7 = load i64, ptr %4, align 8
  %8 = getelementptr inbounds %"class.llvm::MVT", ptr %6, i64 %7
  ret ptr %8
}

; Function Attrs: mustprogress nounwind uwtable
define dso_local void @_ZN4llvm7CCState19AnalyzeCallOperandsERNS_15SmallVectorImplINS_3MVTEEERNS1_INS_3ISD10ArgFlagsTyEEEPFbjS2_S2_NS_11CCValAssign7LocInfoES6_RS0_E(ptr noundef nonnull align 8 dereferenceable(420) %0, ptr noundef nonnull align 8 dereferenceable(24) %1, ptr noundef nonnull align 8 dereferenceable(16) %2, ptr noundef %3) #0 align 2 {
  %5 = alloca ptr, align 8
  %6 = alloca ptr, align 8
  %7 = alloca ptr, align 8
  %8 = alloca ptr, align 8
  %9 = alloca i32, align 4
  %10 = alloca i32, align 4
  %11 = alloca %"class.llvm::MVT", align 2
  %12 = alloca %"struct.llvm::ISD::ArgFlagsTy", align 4
  %13 = alloca %"class.llvm::MVT", align 2
  %14 = alloca %"class.llvm::MVT", align 2
  %15 = alloca %"struct.llvm::ISD::ArgFlagsTy", align 4
  store ptr %0, ptr %5, align 8
  store ptr %1, ptr %6, align 8
  store ptr %2, ptr %7, align 8
  store ptr %3, ptr %8, align 8
  %16 = load ptr, ptr %5, align 8
  %17 = load ptr, ptr %6, align 8
  %18 = call noundef i64 @_ZNK4llvm15SmallVectorBaseImE4sizeEv(ptr noundef nonnull align 8 dereferenceable(24) %17)
  %19 = trunc i64 %18 to i32
  store i32 %19, ptr %9, align 4
  store i32 0, ptr %10, align 4
  br label %20

20:                                               ; preds = %46, %4
  %21 = load i32, ptr %10, align 4
  %22 = load i32, ptr %9, align 4
  %23 = icmp ne i32 %21, %22
  br i1 %23, label %24, label %49

24:                                               ; preds = %20
  %25 = load ptr, ptr %6, align 8
  %26 = load i32, ptr %10, align 4
  %27 = zext i32 %26 to i64
  %28 = call noundef nonnull align 2 dereferenceable(2) ptr @_ZN4llvm25SmallVectorTemplateCommonINS_3MVTEvEixEm(ptr noundef nonnull align 8 dereferenceable(24) %25, i64 noundef %27)
  call void @llvm.memcpy.p0.p0.i64(ptr align 2 %11, ptr align 2 %28, i64 2, i1 false)
  %29 = load ptr, ptr %7, align 8
  %30 = load i32, ptr %10, align 4
  %31 = zext i32 %30 to i64
  %32 = call noundef nonnull align 4 dereferenceable(16) ptr @_ZN4llvm25SmallVectorTemplateCommonINS_3ISD10ArgFlagsTyEvEixEm(ptr noundef nonnull align 8 dereferenceable(16) %29, i64 noundef %31)
  call void @llvm.memcpy.p0.p0.i64(ptr align 4 %12, ptr align 4 %32, i64 16, i1 false)
  %33 = load ptr, ptr %8, align 8
  %34 = load i32, ptr %10, align 4
  call void @llvm.memcpy.p0.p0.i64(ptr align 2 %13, ptr align 2 %11, i64 2, i1 false)
  call void @llvm.memcpy.p0.p0.i64(ptr align 2 %14, ptr align 2 %11, i64 2, i1 false)
  call void @llvm.memcpy.p0.p0.i64(ptr align 4 %15, ptr align 4 %12, i64 16, i1 false)
  %35 = getelementptr inbounds nuw %"class.llvm::MVT", ptr %13, i32 0, i32 0
  %36 = load i16, ptr %35, align 2
  %37 = getelementptr inbounds nuw %"class.llvm::MVT", ptr %14, i32 0, i32 0
  %38 = load i16, ptr %37, align 2
  %39 = getelementptr inbounds nuw { i64, i64 }, ptr %15, i32 0, i32 0
  %40 = load i64, ptr %39, align 4
  %41 = getelementptr inbounds nuw { i64, i64 }, ptr %15, i32 0, i32 1
  %42 = load i64, ptr %41, align 4
  %43 = call noundef zeroext i1 %33(i32 noundef %34, i16 %36, i16 %38, i32 noundef 0, i64 %40, i64 %42, ptr noundef nonnull align 8 dereferenceable(420) %16)
  br i1 %43, label %44, label %45

44:                                               ; preds = %24
  unreachable

45:                                               ; preds = %24
  br label %46

46:                                               ; preds = %45
  %47 = load i32, ptr %10, align 4
  %48 = add i32 %47, 1
  store i32 %48, ptr %10, align 4
  br label %20, !llvm.loop !11

49:                                               ; preds = %20
  ret void
}