; Function Attrs: mustprogress nounwind uwtable
define dso_local void @_ZN4llvm7CCState19AnalyzeCallOperandsERNS_15SmallVectorImplINS_3MVTEEERNS1_INS_3ISD10ArgFlagsTyEEEPFbjS2_S2_NS_11CCValAssign7LocInfoES6_RS0_E(ptr noundef nonnull align 8 dereferenceable(420) %0, ptr noundef nonnull align 8 dereferenceable(24) %1, ptr nocapture noundef nonnull readonly align 8 dereferenceable(16) %2, ptr nocapture noundef readonly %3) local_unnamed_addr #0 align 2 {
  %5 = tail call noundef i64 @_ZNK4llvm15SmallVectorBaseImE4sizeEv(ptr noundef nonnull align 8 dereferenceable(24) %1) #10
  %6 = and i64 %5, 4294967295
  %.not16 = icmp eq i64 %6, 0
  br i1 %.not16, label %._crit_edge, label %.lr.ph.preheader

.lr.ph.preheader:                                 ; preds = %4
  %7 = and i64 %5, 4294967295
  br label %.lr.ph

.lr.ph:                                           ; preds = %.lr.ph.preheader, %.lr.ph
  %indvars.iv = phi i64 [ 0, %.lr.ph.preheader ], [ %indvars.iv.next, %.lr.ph ]
  %8 = load ptr, ptr %1, align 8
  %9 = getelementptr inbounds %"class.llvm::MVT", ptr %8, i64 %indvars.iv
  %.sroa.05.0.copyload = load i16, ptr %9, align 2
  %10 = load ptr, ptr %2, align 8
  %11 = getelementptr inbounds %"struct.llvm::ISD::ArgFlagsTy", ptr %10, i64 %indvars.iv
  %.sroa.03.0.copyload = load i64, ptr %11, align 4
  %.sroa.24.0..sroa_idx = getelementptr inbounds i8, ptr %11, i64 8
  %.sroa.24.0.copyload = load i64, ptr %.sroa.24.0..sroa_idx, align 4
  %12 = trunc nuw i64 %indvars.iv to i32
  %13 = tail call noundef zeroext i1 %3(i32 noundef %12, i16 %.sroa.05.0.copyload, i16 %.sroa.05.0.copyload, i32 noundef 0, i64 %.sroa.03.0.copyload, i64 %.sroa.24.0.copyload, ptr noundef nonnull align 8 dereferenceable(420) %0) #10
  %14 = xor i1 %13, true
  tail call void @llvm.assume(i1 %14)
  %indvars.iv.next = add nuw nsw i64 %indvars.iv, 1
  %.not = icmp eq i64 %indvars.iv.next, %7
  br i1 %.not, label %._crit_edge, label %.lr.ph, !llvm.loop !18

._crit_edge:                                      ; preds = %.lr.ph, %4
  ret void
}